
Attiny2313_Calculator.elf:     file format elf32-avr

Sections:
Idx Name          Size      VMA       LMA       File off  Algn
  0 .text         00000624  00000000  00000000  00000094  2**1
                  CONTENTS, ALLOC, LOAD, READONLY, CODE
  1 .data         00000014  00800060  00000624  000006b8  2**0
                  CONTENTS, ALLOC, LOAD, DATA
  2 .bss          00000019  00800074  00800074  000006cc  2**0
                  ALLOC
  3 .comment      00000030  00000000  00000000  000006cc  2**0
                  CONTENTS, READONLY
  4 .debug_aranges 00000080  00000000  00000000  000006fc  2**0
                  CONTENTS, READONLY, DEBUGGING
  5 .debug_info   00000bf2  00000000  00000000  0000077c  2**0
                  CONTENTS, READONLY, DEBUGGING
  6 .debug_abbrev 000002ca  00000000  00000000  0000136e  2**0
                  CONTENTS, READONLY, DEBUGGING
  7 .debug_line   0000036c  00000000  00000000  00001638  2**0
                  CONTENTS, READONLY, DEBUGGING
  8 .debug_frame  00000160  00000000  00000000  000019a4  2**2
                  CONTENTS, READONLY, DEBUGGING
  9 .debug_str    000002d7  00000000  00000000  00001b04  2**0
                  CONTENTS, READONLY, DEBUGGING
 10 .debug_loc    00000757  00000000  00000000  00001ddb  2**0
                  CONTENTS, READONLY, DEBUGGING
 11 .debug_ranges 00000088  00000000  00000000  00002532  2**0
                  CONTENTS, READONLY, DEBUGGING

Disassembly of section .text:

00000000 <__vectors>:
   0:	12 c0       	rjmp	.+36     	; 0x26 <__ctors_end>
   2:	2a c0       	rjmp	.+84     	; 0x58 <__bad_interrupt>
   4:	29 c0       	rjmp	.+82     	; 0x58 <__bad_interrupt>
   6:	28 c0       	rjmp	.+80     	; 0x58 <__bad_interrupt>
   8:	27 c0       	rjmp	.+78     	; 0x58 <__bad_interrupt>
   a:	26 c0       	rjmp	.+76     	; 0x58 <__bad_interrupt>
   c:	25 c0       	rjmp	.+74     	; 0x58 <__bad_interrupt>
   e:	24 c0       	rjmp	.+72     	; 0x58 <__bad_interrupt>
  10:	23 c0       	rjmp	.+70     	; 0x58 <__bad_interrupt>
  12:	22 c0       	rjmp	.+68     	; 0x58 <__bad_interrupt>
  14:	21 c0       	rjmp	.+66     	; 0x58 <__bad_interrupt>
  16:	20 c0       	rjmp	.+64     	; 0x58 <__bad_interrupt>
  18:	1f c0       	rjmp	.+62     	; 0x58 <__bad_interrupt>
  1a:	1e c0       	rjmp	.+60     	; 0x58 <__bad_interrupt>
  1c:	1d c0       	rjmp	.+58     	; 0x58 <__bad_interrupt>
  1e:	1c c0       	rjmp	.+56     	; 0x58 <__bad_interrupt>
  20:	1b c0       	rjmp	.+54     	; 0x58 <__bad_interrupt>
  22:	1a c0       	rjmp	.+52     	; 0x58 <__bad_interrupt>
  24:	19 c0       	rjmp	.+50     	; 0x58 <__bad_interrupt>

00000026 <__ctors_end>:
  26:	11 24       	eor	r1, r1
  28:	1f be       	out	0x3f, r1	; 63
  2a:	cf ed       	ldi	r28, 0xDF	; 223
  2c:	cd bf       	out	0x3d, r28	; 61

0000002e <__do_copy_data>:
  2e:	10 e0       	ldi	r17, 0x00	; 0
  30:	a0 e6       	ldi	r26, 0x60	; 96
  32:	b0 e0       	ldi	r27, 0x00	; 0
  34:	e4 e2       	ldi	r30, 0x24	; 36
  36:	f6 e0       	ldi	r31, 0x06	; 6
  38:	02 c0       	rjmp	.+4      	; 0x3e <__SP_L__+0x1>
  3a:	05 90       	lpm	r0, Z+
  3c:	0d 92       	st	X+, r0
  3e:	a4 37       	cpi	r26, 0x74	; 116
  40:	b1 07       	cpc	r27, r17
  42:	d9 f7       	brne	.-10     	; 0x3a <__do_copy_data+0xc>

00000044 <__do_clear_bss>:
  44:	20 e0       	ldi	r18, 0x00	; 0
  46:	a4 e7       	ldi	r26, 0x74	; 116
  48:	b0 e0       	ldi	r27, 0x00	; 0
  4a:	01 c0       	rjmp	.+2      	; 0x4e <.do_clear_bss_start>

0000004c <.do_clear_bss_loop>:
  4c:	1d 92       	st	X+, r1

0000004e <.do_clear_bss_start>:
  4e:	ad 38       	cpi	r26, 0x8D	; 141
  50:	b2 07       	cpc	r27, r18
  52:	e1 f7       	brne	.-8      	; 0x4c <.do_clear_bss_loop>
  54:	9c d2       	rcall	.+1336   	; 0x58e <main>
  56:	e4 c2       	rjmp	.+1480   	; 0x620 <_exit>

00000058 <__bad_interrupt>:
  58:	d3 cf       	rjmp	.-90     	; 0x0 <__vectors>

0000005a <sreg_init>:
/*=========1602LCD============*/

/*=======74HC595========*/
void sreg_init()
{
	SREG_DDR |= (1<<ST_CP)|(1<<DS)|(1<<SH_CP);
  5a:	81 b3       	in	r24, 0x11	; 17
  5c:	88 63       	ori	r24, 0x38	; 56
  5e:	81 bb       	out	0x11, r24	; 17
  60:	08 95       	ret

00000062 <sreg_write>:
}
void sreg_write(int val)
{
	int c,k;
	SH_CP_DISABLE;
  62:	95 98       	cbi	0x12, 5	; 18
	ST_CP_DISABLE;
  64:	93 98       	cbi	0x12, 3	; 18
	for (c = 31; c >= 0; c--)
  66:	2f e1       	ldi	r18, 0x1F	; 31
  68:	30 e0       	ldi	r19, 0x00	; 0
	{
		k = val >> c;
  6a:	ac 01       	movw	r20, r24
  6c:	02 2e       	mov	r0, r18
  6e:	02 c0       	rjmp	.+4      	; 0x74 <sreg_write+0x12>
  70:	55 95       	asr	r21
  72:	47 95       	ror	r20
  74:	0a 94       	dec	r0
  76:	e2 f7       	brpl	.-8      	; 0x70 <sreg_write+0xe>
		if (k & 1)
  78:	40 ff       	sbrs	r20, 0
  7a:	02 c0       	rjmp	.+4      	; 0x80 <sreg_write+0x1e>
		{
			DS_ENABLE;
  7c:	94 9a       	sbi	0x12, 4	; 18
  7e:	01 c0       	rjmp	.+2      	; 0x82 <sreg_write+0x20>
		}
		else
		{
			DS_DISABLE;
  80:	94 98       	cbi	0x12, 4	; 18
		}
		SH_CP_ENABLE;
  82:	95 9a       	sbi	0x12, 5	; 18
		SH_CP_DISABLE;
  84:	95 98       	cbi	0x12, 5	; 18
void sreg_write(int val)
{
	int c,k;
	SH_CP_DISABLE;
	ST_CP_DISABLE;
	for (c = 31; c >= 0; c--)
  86:	21 50       	subi	r18, 0x01	; 1
  88:	31 09       	sbc	r19, r1
  8a:	78 f7       	brcc	.-34     	; 0x6a <sreg_write+0x8>
			DS_DISABLE;
		}
		SH_CP_ENABLE;
		SH_CP_DISABLE;
	}
	ST_CP_ENABLE;	
  8c:	93 9a       	sbi	0x12, 3	; 18
  8e:	08 95       	ret

00000090 <lcd_write_char>:
	{
		lcd_write_char(*str);
	}while(*++str);
}
void lcd_write_char(char ch)
{
  90:	cf 93       	push	r28
  92:	df 93       	push	r29
	RS_ENABLE;
  94:	92 9a       	sbi	0x12, 2	; 18
	sreg_write(ch);
  96:	c8 2f       	mov	r28, r24
  98:	d0 e0       	ldi	r29, 0x00	; 0
  9a:	ce 01       	movw	r24, r28
  9c:	e2 df       	rcall	.-60     	; 0x62 <sreg_write>
	EN_ENABLE;
  9e:	90 9a       	sbi	0x12, 0	; 18
	#else
		//round up by default
		__ticks_dc = (uint32_t)(ceil(fabs(__tmp)));
	#endif

	__builtin_avr_delay_cycles(__ticks_dc);
  a0:	8a e1       	ldi	r24, 0x1A	; 26
  a2:	8a 95       	dec	r24
  a4:	f1 f7       	brne	.-4      	; 0xa2 <lcd_write_char+0x12>
  a6:	00 c0       	rjmp	.+0      	; 0xa8 <lcd_write_char+0x18>
	/*_delay_ms*/_delay_us(10);
	EN_DISABLE;
  a8:	90 98       	cbi	0x12, 0	; 18
	sreg_write(~ch);
  aa:	ce 01       	movw	r24, r28
  ac:	80 95       	com	r24
  ae:	90 95       	com	r25
  b0:	d8 df       	rcall	.-80     	; 0x62 <sreg_write>
	RS_DISABLE;
  b2:	92 98       	cbi	0x12, 2	; 18
}
  b4:	df 91       	pop	r29
  b6:	cf 91       	pop	r28
  b8:	08 95       	ret

000000ba <lcd_write_str>:
		pos += 0x40;
	}
	lcd_write_cmd(pos);
}
void lcd_write_str(char*str) 
{
  ba:	cf 93       	push	r28
  bc:	df 93       	push	r29
  be:	ec 01       	movw	r28, r24
	do 
	{
		lcd_write_char(*str);
  c0:	89 91       	ld	r24, Y+
  c2:	e6 df       	rcall	.-52     	; 0x90 <lcd_write_char>
	}while(*++str);
  c4:	88 81       	ld	r24, Y
  c6:	81 11       	cpse	r24, r1
  c8:	fb cf       	rjmp	.-10     	; 0xc0 <lcd_write_str+0x6>
}
  ca:	df 91       	pop	r29
  cc:	cf 91       	pop	r28
  ce:	08 95       	ret

000000d0 <lcd_write_cmd>:
	EN_DISABLE;
	sreg_write(~ch);
	RS_DISABLE;
}
void lcd_write_cmd(int data)
{
  d0:	cf 93       	push	r28
  d2:	df 93       	push	r29
  d4:	ec 01       	movw	r28, r24
	sreg_write(data);
  d6:	c5 df       	rcall	.-118    	; 0x62 <sreg_write>
	EN_ENABLE;
  d8:	90 9a       	sbi	0x12, 0	; 18
  da:	8a e1       	ldi	r24, 0x1A	; 26
  dc:	8a 95       	dec	r24
  de:	f1 f7       	brne	.-4      	; 0xdc <lcd_write_cmd+0xc>
  e0:	00 c0       	rjmp	.+0      	; 0xe2 <__stack+0x3>
	/*_delay_ms*/_delay_us(10);
	EN_DISABLE;
  e2:	90 98       	cbi	0x12, 0	; 18
	sreg_write(~data);
  e4:	ce 01       	movw	r24, r28
  e6:	80 95       	com	r24
  e8:	90 95       	com	r25
  ea:	bb df       	rcall	.-138    	; 0x62 <sreg_write>
}
  ec:	df 91       	pop	r29
  ee:	cf 91       	pop	r28
  f0:	08 95       	ret

000000f2 <lcd_init>:
void lcd_init()
{
	LCD_DDR |= (1<<EN_PIN)|(1<<RS_PIN)|(1<<RW_PIN);
  f2:	81 b3       	in	r24, 0x11	; 17
  f4:	87 60       	ori	r24, 0x07	; 7
  f6:	81 bb       	out	0x11, r24	; 17
	RW_DISABLE;
  f8:	91 98       	cbi	0x12, 1	; 18
	RS_DISABLE;
  fa:	92 98       	cbi	0x12, 2	; 18
	#else
		//round up by default
		__ticks_dc = (uint32_t)(ceil(fabs(__tmp)));
	#endif

	__builtin_avr_delay_cycles(__ticks_dc);
  fc:	8f e5       	ldi	r24, 0x5F	; 95
  fe:	9a ee       	ldi	r25, 0xEA	; 234
 100:	01 97       	sbiw	r24, 0x01	; 1
 102:	f1 f7       	brne	.-4      	; 0x100 <lcd_init+0xe>
 104:	00 c0       	rjmp	.+0      	; 0x106 <lcd_init+0x14>
 106:	00 00       	nop
	_delay_ms(30);
	
	lcd_write_cmd(0x30);
 108:	80 e3       	ldi	r24, 0x30	; 48
 10a:	90 e0       	ldi	r25, 0x00	; 0
 10c:	e1 df       	rcall	.-62     	; 0xd0 <lcd_write_cmd>
	#else
		//round up by default
		__ticks_dc = (uint32_t)(ceil(fabs(__tmp)));
	#endif

	__builtin_avr_delay_cycles(__ticks_dc);
 10e:	95 e3       	ldi	r25, 0x35	; 53
 110:	9a 95       	dec	r25
 112:	f1 f7       	brne	.-4      	; 0x110 <lcd_init+0x1e>
 114:	00 00       	nop
	/*_delay_ms*/_delay_us(20);
	lcd_write_cmd(0x30);
 116:	80 e3       	ldi	r24, 0x30	; 48
 118:	90 e0       	ldi	r25, 0x00	; 0
 11a:	da df       	rcall	.-76     	; 0xd0 <lcd_write_cmd>
 11c:	85 e3       	ldi	r24, 0x35	; 53
 11e:	8a 95       	dec	r24
 120:	f1 f7       	brne	.-4      	; 0x11e <lcd_init+0x2c>
 122:	00 00       	nop
	/*_delay_ms*/_delay_us(20);
	lcd_write_cmd(0x30);
 124:	80 e3       	ldi	r24, 0x30	; 48
 126:	90 e0       	ldi	r25, 0x00	; 0
 128:	d3 df       	rcall	.-90     	; 0xd0 <lcd_write_cmd>
 12a:	95 e3       	ldi	r25, 0x35	; 53
 12c:	9a 95       	dec	r25
 12e:	f1 f7       	brne	.-4      	; 0x12c <lcd_init+0x3a>
 130:	00 00       	nop
	/*_delay_ms*/_delay_us(20);
	
	lcd_write_cmd(0x38);//Function Set: 8-bit, 2 Line, 5?7 Dots
 132:	88 e3       	ldi	r24, 0x38	; 56
 134:	90 e0       	ldi	r25, 0x00	; 0
 136:	cc df       	rcall	.-104    	; 0xd0 <lcd_write_cmd>
 138:	85 e3       	ldi	r24, 0x35	; 53
 13a:	8a 95       	dec	r24
 13c:	f1 f7       	brne	.-4      	; 0x13a <lcd_init+0x48>
 13e:	00 00       	nop
	/*_delay_ms*/_delay_us(20);
	
	lcd_write_cmd(0x01);//Clear Display
 140:	81 e0       	ldi	r24, 0x01	; 1
 142:	90 e0       	ldi	r25, 0x00	; 0
 144:	c5 df       	rcall	.-118    	; 0xd0 <lcd_write_cmd>
 146:	95 e3       	ldi	r25, 0x35	; 53
 148:	9a 95       	dec	r25
 14a:	f1 f7       	brne	.-4      	; 0x148 <lcd_init+0x56>
 14c:	00 00       	nop
	/*_delay_ms*/_delay_us(20);
	
	lcd_write_cmd(0x06);//Entry Mode
 14e:	86 e0       	ldi	r24, 0x06	; 6
 150:	90 e0       	ldi	r25, 0x00	; 0
 152:	be df       	rcall	.-132    	; 0xd0 <lcd_write_cmd>
 154:	85 e3       	ldi	r24, 0x35	; 53
 156:	8a 95       	dec	r24
 158:	f1 f7       	brne	.-4      	; 0x156 <lcd_init+0x64>
 15a:	00 00       	nop
	/*_delay_ms*/_delay_us(20);
	
	lcd_write_cmd(0x0F);//Display on Cursor blinking
 15c:	8f e0       	ldi	r24, 0x0F	; 15
 15e:	90 e0       	ldi	r25, 0x00	; 0
 160:	b7 df       	rcall	.-146    	; 0xd0 <lcd_write_cmd>
 162:	95 e3       	ldi	r25, 0x35	; 53
 164:	9a 95       	dec	r25
 166:	f1 f7       	brne	.-4      	; 0x164 <lcd_init+0x72>
 168:	00 00       	nop
	/*_delay_ms*/_delay_us(20);
	RS_ENABLE;
 16a:	92 9a       	sbi	0x12, 2	; 18
 16c:	08 95       	ret

0000016e <keypad_init>:
/*=======74HC595========*/

/*====МАТРИЧНАЯ КЛАВИАТУРА====*/
void keypad_init()
{
	KEYPAD_DDR = KEYPAD_INIT_;
 16e:	80 ef       	ldi	r24, 0xF0	; 240
 170:	87 bb       	out	0x17, r24	; 23
	KEYPAD_PORT = 0xFF;
 172:	8f ef       	ldi	r24, 0xFF	; 255
 174:	88 bb       	out	0x18, r24	; 24
 176:	08 95       	ret

00000178 <calculation>:
	}
	return TEMP_VAL;
}

void calculation(char ch)
{
 178:	cf 93       	push	r28
 17a:	c8 2f       	mov	r28, r24
	switch(MODE)
 17c:	80 91 78 00 	lds	r24, 0x0078
 180:	81 30       	cpi	r24, 0x01	; 1
 182:	09 f4       	brne	.+2      	; 0x186 <calculation+0xe>
 184:	87 c0       	rjmp	.+270    	; 0x294 <calculation+0x11c>
 186:	20 f0       	brcs	.+8      	; 0x190 <calculation+0x18>
 188:	82 30       	cpi	r24, 0x02	; 2
 18a:	09 f4       	brne	.+2      	; 0x18e <calculation+0x16>
 18c:	6a c1       	rjmp	.+724    	; 0x462 <calculation+0x2ea>
 18e:	80 c1       	rjmp	.+768    	; 0x490 <calculation+0x318>
	{
		case 0:
			if(ch=='?')
 190:	cf 33       	cpi	r28, 0x3F	; 63
 192:	79 f5       	brne	.+94     	; 0x1f2 <calculation+0x7a>
			{
				LINE_L_MINUS;
 194:	80 91 74 00 	lds	r24, 0x0074
 198:	90 91 75 00 	lds	r25, 0x0075
 19c:	01 97       	sbiw	r24, 0x01	; 1
 19e:	99 23       	and	r25, r25
 1a0:	2c f0       	brlt	.+10     	; 0x1ac <calculation+0x34>
 1a2:	90 93 75 00 	sts	0x0075, r25
 1a6:	80 93 74 00 	sts	0x0074, r24
 1aa:	04 c0       	rjmp	.+8      	; 0x1b4 <calculation+0x3c>
 1ac:	10 92 75 00 	sts	0x0075, r1
 1b0:	10 92 74 00 	sts	0x0074, r1
				A_VAL = soft_div(A_VAL,10);//A_VAL/10;
 1b4:	80 91 7c 00 	lds	r24, 0x007C
 1b8:	90 91 7d 00 	lds	r25, 0x007D
	return a;
}
int soft_div(int a,int b)
{
	int TEMP_VAL = 0;
	while (a>=b)
 1bc:	8a 30       	cpi	r24, 0x0A	; 10
 1be:	91 05       	cpc	r25, r1
 1c0:	4c f0       	brlt	.+18     	; 0x1d4 <calculation+0x5c>
	}
	return a;
}
int soft_div(int a,int b)
{
	int TEMP_VAL = 0;
 1c2:	20 e0       	ldi	r18, 0x00	; 0
 1c4:	30 e0       	ldi	r19, 0x00	; 0
	while (a>=b)
	{
		a = a - b;
 1c6:	0a 97       	sbiw	r24, 0x0a	; 10
		TEMP_VAL++;
 1c8:	2f 5f       	subi	r18, 0xFF	; 255
 1ca:	3f 4f       	sbci	r19, 0xFF	; 255
	return a;
}
int soft_div(int a,int b)
{
	int TEMP_VAL = 0;
	while (a>=b)
 1cc:	8a 30       	cpi	r24, 0x0A	; 10
 1ce:	91 05       	cpc	r25, r1
 1d0:	d4 f7       	brge	.-12     	; 0x1c6 <calculation+0x4e>
 1d2:	02 c0       	rjmp	.+4      	; 0x1d8 <calculation+0x60>
	}
	return a;
}
int soft_div(int a,int b)
{
	int TEMP_VAL = 0;
 1d4:	20 e0       	ldi	r18, 0x00	; 0
 1d6:	30 e0       	ldi	r19, 0x00	; 0
	{
		case 0:
			if(ch=='?')
			{
				LINE_L_MINUS;
				A_VAL = soft_div(A_VAL,10);//A_VAL/10;
 1d8:	30 93 7d 00 	sts	0x007D, r19
 1dc:	20 93 7c 00 	sts	0x007C, r18
				LCD_BACKSPACE;
 1e0:	80 e1       	ldi	r24, 0x10	; 16
 1e2:	90 e0       	ldi	r25, 0x00	; 0
 1e4:	75 df       	rcall	.-278    	; 0xd0 <lcd_write_cmd>
 1e6:	82 e0       	ldi	r24, 0x02	; 2
 1e8:	53 df       	rcall	.-346    	; 0x90 <lcd_write_char>
 1ea:	80 e1       	ldi	r24, 0x10	; 16
 1ec:	90 e0       	ldi	r25, 0x00	; 0
 1ee:	70 df       	rcall	.-288    	; 0xd0 <lcd_write_cmd>
 1f0:	4f c1       	rjmp	.+670    	; 0x490 <calculation+0x318>
			}
			else if(ch=='+'||ch=='-'||ch=='/'||ch=='*')
 1f2:	8c 2f       	mov	r24, r28
 1f4:	8d 7f       	andi	r24, 0xFD	; 253
 1f6:	8d 32       	cpi	r24, 0x2D	; 45
 1f8:	21 f0       	breq	.+8      	; 0x202 <calculation+0x8a>
 1fa:	86 ed       	ldi	r24, 0xD6	; 214
 1fc:	8c 0f       	add	r24, r28
 1fe:	82 30       	cpi	r24, 0x02	; 2
 200:	c0 f4       	brcc	.+48     	; 0x232 <calculation+0xba>
			{
				LINE_L_PLUS;
 202:	20 91 74 00 	lds	r18, 0x0074
 206:	30 91 75 00 	lds	r19, 0x0075
 20a:	2f 5f       	subi	r18, 0xFF	; 255
 20c:	3f 4f       	sbci	r19, 0xFF	; 255
 20e:	30 93 75 00 	sts	0x0075, r19
 212:	20 93 74 00 	sts	0x0074, r18
 216:	20 31       	cpi	r18, 0x10	; 16
 218:	31 05       	cpc	r19, r1
 21a:	1c f0       	brlt	.+6      	; 0x222 <calculation+0xaa>
 21c:	81 e0       	ldi	r24, 0x01	; 1
 21e:	90 e0       	ldi	r25, 0x00	; 0
 220:	57 df       	rcall	.-338    	; 0xd0 <lcd_write_cmd>
				OPERATION_VAL = ch;
 222:	c0 93 7b 00 	sts	0x007B, r28
				lcd_write_char(ch);
 226:	8c 2f       	mov	r24, r28
 228:	33 df       	rcall	.-410    	; 0x90 <lcd_write_char>
				MODE=1;
 22a:	81 e0       	ldi	r24, 0x01	; 1
 22c:	80 93 78 00 	sts	0x0078, r24
 230:	2f c1       	rjmp	.+606    	; 0x490 <calculation+0x318>
			}
			else
			{
				LINE_L_PLUS;
 232:	80 91 74 00 	lds	r24, 0x0074
 236:	90 91 75 00 	lds	r25, 0x0075
 23a:	01 96       	adiw	r24, 0x01	; 1
 23c:	90 93 75 00 	sts	0x0075, r25
 240:	80 93 74 00 	sts	0x0074, r24
 244:	40 97       	sbiw	r24, 0x10	; 16
 246:	1c f0       	brlt	.+6      	; 0x24e <calculation+0xd6>
 248:	81 e0       	ldi	r24, 0x01	; 1
 24a:	90 e0       	ldi	r25, 0x00	; 0
 24c:	41 df       	rcall	.-382    	; 0xd0 <lcd_write_cmd>
				A_VAL = soft_multp(A_VAL,10)+(ch-'0');//A_VAL*10+(ch-'0');
 24e:	80 91 7c 00 	lds	r24, 0x007C
 252:	90 91 7d 00 	lds	r25, 0x007D
 256:	2a e0       	ldi	r18, 0x0A	; 10
 258:	30 e0       	ldi	r19, 0x00	; 0
 25a:	21 50       	subi	r18, 0x01	; 1
 25c:	31 09       	sbc	r19, r1
/*==========Расчеты===========*/
int soft_multp(int a,int b)
{
	int TEMP_VAL = a;
	a = 0;
	for (int i = 0; i < b; i++)
 25e:	21 15       	cp	r18, r1
 260:	31 05       	cpc	r19, r1
 262:	d9 f7       	brne	.-10     	; 0x25a <calculation+0xe2>
				MODE=1;
			}
			else
			{
				LINE_L_PLUS;
				A_VAL = soft_multp(A_VAL,10)+(ch-'0');//A_VAL*10+(ch-'0');
 264:	4c 2f       	mov	r20, r28
 266:	50 e0       	ldi	r21, 0x00	; 0
 268:	40 53       	subi	r20, 0x30	; 48
 26a:	51 09       	sbc	r21, r1
 26c:	9c 01       	movw	r18, r24
 26e:	22 0f       	add	r18, r18
 270:	33 1f       	adc	r19, r19
 272:	22 0f       	add	r18, r18
 274:	33 1f       	adc	r19, r19
 276:	82 0f       	add	r24, r18
 278:	93 1f       	adc	r25, r19
 27a:	9c 01       	movw	r18, r24
 27c:	22 0f       	add	r18, r18
 27e:	33 1f       	adc	r19, r19
 280:	ca 01       	movw	r24, r20
 282:	82 0f       	add	r24, r18
 284:	93 1f       	adc	r25, r19
 286:	90 93 7d 00 	sts	0x007D, r25
 28a:	80 93 7c 00 	sts	0x007C, r24
				lcd_write_char(ch);
 28e:	8c 2f       	mov	r24, r28
 290:	ff de       	rcall	.-514    	; 0x90 <lcd_write_char>
 292:	fe c0       	rjmp	.+508    	; 0x490 <calculation+0x318>
			}
		break;
		case 1:
			if(ch=='?')
 294:	cf 33       	cpi	r28, 0x3F	; 63
 296:	79 f5       	brne	.+94     	; 0x2f6 <calculation+0x17e>
			{
				LINE_L_MINUS;
 298:	80 91 74 00 	lds	r24, 0x0074
 29c:	90 91 75 00 	lds	r25, 0x0075
 2a0:	01 97       	sbiw	r24, 0x01	; 1
 2a2:	99 23       	and	r25, r25
 2a4:	2c f0       	brlt	.+10     	; 0x2b0 <calculation+0x138>
 2a6:	90 93 75 00 	sts	0x0075, r25
 2aa:	80 93 74 00 	sts	0x0074, r24
 2ae:	04 c0       	rjmp	.+8      	; 0x2b8 <calculation+0x140>
 2b0:	10 92 75 00 	sts	0x0075, r1
 2b4:	10 92 74 00 	sts	0x0074, r1
				B_VAL = soft_div(B_VAL,10);//B_VAL/10;
 2b8:	80 91 79 00 	lds	r24, 0x0079
 2bc:	90 91 7a 00 	lds	r25, 0x007A
	return a;
}
int soft_div(int a,int b)
{
	int TEMP_VAL = 0;
	while (a>=b)
 2c0:	8a 30       	cpi	r24, 0x0A	; 10
 2c2:	91 05       	cpc	r25, r1
 2c4:	4c f0       	brlt	.+18     	; 0x2d8 <calculation+0x160>
	}
	return a;
}
int soft_div(int a,int b)
{
	int TEMP_VAL = 0;
 2c6:	20 e0       	ldi	r18, 0x00	; 0
 2c8:	30 e0       	ldi	r19, 0x00	; 0
	while (a>=b)
	{
		a = a - b;
 2ca:	0a 97       	sbiw	r24, 0x0a	; 10
		TEMP_VAL++;
 2cc:	2f 5f       	subi	r18, 0xFF	; 255
 2ce:	3f 4f       	sbci	r19, 0xFF	; 255
	return a;
}
int soft_div(int a,int b)
{
	int TEMP_VAL = 0;
	while (a>=b)
 2d0:	8a 30       	cpi	r24, 0x0A	; 10
 2d2:	91 05       	cpc	r25, r1
 2d4:	d4 f7       	brge	.-12     	; 0x2ca <calculation+0x152>
 2d6:	02 c0       	rjmp	.+4      	; 0x2dc <calculation+0x164>
	}
	return a;
}
int soft_div(int a,int b)
{
	int TEMP_VAL = 0;
 2d8:	20 e0       	ldi	r18, 0x00	; 0
 2da:	30 e0       	ldi	r19, 0x00	; 0
		break;
		case 1:
			if(ch=='?')
			{
				LINE_L_MINUS;
				B_VAL = soft_div(B_VAL,10);//B_VAL/10;
 2dc:	30 93 7a 00 	sts	0x007A, r19
 2e0:	20 93 79 00 	sts	0x0079, r18
				LCD_BACKSPACE;
 2e4:	80 e1       	ldi	r24, 0x10	; 16
 2e6:	90 e0       	ldi	r25, 0x00	; 0
 2e8:	f3 de       	rcall	.-538    	; 0xd0 <lcd_write_cmd>
 2ea:	82 e0       	ldi	r24, 0x02	; 2
 2ec:	d1 de       	rcall	.-606    	; 0x90 <lcd_write_char>
 2ee:	80 e1       	ldi	r24, 0x10	; 16
 2f0:	90 e0       	ldi	r25, 0x00	; 0
 2f2:	ee de       	rcall	.-548    	; 0xd0 <lcd_write_cmd>
 2f4:	cd c0       	rjmp	.+410    	; 0x490 <calculation+0x318>
			}
			else if(ch=='=')
 2f6:	cd 33       	cpi	r28, 0x3D	; 61
 2f8:	09 f0       	breq	.+2      	; 0x2fc <calculation+0x184>
 2fa:	81 c0       	rjmp	.+258    	; 0x3fe <calculation+0x286>
			{
				switch(OPERATION_VAL)
 2fc:	80 91 7b 00 	lds	r24, 0x007B
 300:	8b 32       	cpi	r24, 0x2B	; 43
 302:	c9 f0       	breq	.+50     	; 0x336 <calculation+0x1be>
 304:	20 f4       	brcc	.+8      	; 0x30e <calculation+0x196>
 306:	8a 32       	cpi	r24, 0x2A	; 42
 308:	09 f4       	brne	.+2      	; 0x30c <calculation+0x194>
 30a:	40 c0       	rjmp	.+128    	; 0x38c <calculation+0x214>
 30c:	59 c0       	rjmp	.+178    	; 0x3c0 <calculation+0x248>
 30e:	8d 32       	cpi	r24, 0x2D	; 45
 310:	19 f0       	breq	.+6      	; 0x318 <calculation+0x1a0>
 312:	8f 32       	cpi	r24, 0x2F	; 47
 314:	f9 f0       	breq	.+62     	; 0x354 <calculation+0x1dc>
 316:	54 c0       	rjmp	.+168    	; 0x3c0 <calculation+0x248>
				{
					case '-':
					RESULT = A_VAL-B_VAL;
 318:	80 91 7c 00 	lds	r24, 0x007C
 31c:	90 91 7d 00 	lds	r25, 0x007D
 320:	20 91 79 00 	lds	r18, 0x0079
 324:	30 91 7a 00 	lds	r19, 0x007A
 328:	82 1b       	sub	r24, r18
 32a:	93 0b       	sbc	r25, r19
 32c:	90 93 77 00 	sts	0x0077, r25
 330:	80 93 76 00 	sts	0x0076, r24
					break;
 334:	45 c0       	rjmp	.+138    	; 0x3c0 <calculation+0x248>
					case '+':
					RESULT = A_VAL+B_VAL;
 336:	20 91 7c 00 	lds	r18, 0x007C
 33a:	30 91 7d 00 	lds	r19, 0x007D
 33e:	80 91 79 00 	lds	r24, 0x0079
 342:	90 91 7a 00 	lds	r25, 0x007A
 346:	82 0f       	add	r24, r18
 348:	93 1f       	adc	r25, r19
 34a:	90 93 77 00 	sts	0x0077, r25
 34e:	80 93 76 00 	sts	0x0076, r24
					break;
 352:	36 c0       	rjmp	.+108    	; 0x3c0 <calculation+0x248>
					case '/':
					RESULT = soft_div(A_VAL,B_VAL);//A_VAL/B_VAL;
 354:	40 91 79 00 	lds	r20, 0x0079
 358:	50 91 7a 00 	lds	r21, 0x007A
 35c:	80 91 7c 00 	lds	r24, 0x007C
 360:	90 91 7d 00 	lds	r25, 0x007D
	return a;
}
int soft_div(int a,int b)
{
	int TEMP_VAL = 0;
	while (a>=b)
 364:	84 17       	cp	r24, r20
 366:	95 07       	cpc	r25, r21
 368:	54 f0       	brlt	.+20     	; 0x37e <calculation+0x206>
	}
	return a;
}
int soft_div(int a,int b)
{
	int TEMP_VAL = 0;
 36a:	20 e0       	ldi	r18, 0x00	; 0
 36c:	30 e0       	ldi	r19, 0x00	; 0
	while (a>=b)
	{
		a = a - b;
 36e:	84 1b       	sub	r24, r20
 370:	95 0b       	sbc	r25, r21
		TEMP_VAL++;
 372:	2f 5f       	subi	r18, 0xFF	; 255
 374:	3f 4f       	sbci	r19, 0xFF	; 255
	return a;
}
int soft_div(int a,int b)
{
	int TEMP_VAL = 0;
	while (a>=b)
 376:	84 17       	cp	r24, r20
 378:	95 07       	cpc	r25, r21
 37a:	cc f7       	brge	.-14     	; 0x36e <calculation+0x1f6>
 37c:	02 c0       	rjmp	.+4      	; 0x382 <calculation+0x20a>
	}
	return a;
}
int soft_div(int a,int b)
{
	int TEMP_VAL = 0;
 37e:	20 e0       	ldi	r18, 0x00	; 0
 380:	30 e0       	ldi	r19, 0x00	; 0
					break;
					case '+':
					RESULT = A_VAL+B_VAL;
					break;
					case '/':
					RESULT = soft_div(A_VAL,B_VAL);//A_VAL/B_VAL;
 382:	30 93 77 00 	sts	0x0077, r19
 386:	20 93 76 00 	sts	0x0076, r18
					break;
 38a:	1a c0       	rjmp	.+52     	; 0x3c0 <calculation+0x248>
					case '*':
					RESULT = soft_multp(A_VAL,B_VAL);//A_VAL*B_VAL;
 38c:	80 91 79 00 	lds	r24, 0x0079
 390:	90 91 7a 00 	lds	r25, 0x007A
 394:	60 91 7c 00 	lds	r22, 0x007C
 398:	70 91 7d 00 	lds	r23, 0x007D
/*==========Расчеты===========*/
int soft_multp(int a,int b)
{
	int TEMP_VAL = a;
	a = 0;
	for (int i = 0; i < b; i++)
 39c:	18 16       	cp	r1, r24
 39e:	19 06       	cpc	r1, r25
 3a0:	4c f4       	brge	.+18     	; 0x3b4 <calculation+0x23c>
 3a2:	20 e0       	ldi	r18, 0x00	; 0
 3a4:	30 e0       	ldi	r19, 0x00	; 0
 3a6:	2f 5f       	subi	r18, 0xFF	; 255
 3a8:	3f 4f       	sbci	r19, 0xFF	; 255
 3aa:	28 17       	cp	r18, r24
 3ac:	39 07       	cpc	r19, r25
 3ae:	d9 f7       	brne	.-10     	; 0x3a6 <calculation+0x22e>
 3b0:	f3 d0       	rcall	.+486    	; 0x598 <__mulhi3>
 3b2:	02 c0       	rjmp	.+4      	; 0x3b8 <calculation+0x240>

/*==========Расчеты===========*/
int soft_multp(int a,int b)
{
	int TEMP_VAL = a;
	a = 0;
 3b4:	80 e0       	ldi	r24, 0x00	; 0
 3b6:	90 e0       	ldi	r25, 0x00	; 0
					break;
					case '/':
					RESULT = soft_div(A_VAL,B_VAL);//A_VAL/B_VAL;
					break;
					case '*':
					RESULT = soft_multp(A_VAL,B_VAL);//A_VAL*B_VAL;
 3b8:	90 93 77 00 	sts	0x0077, r25
 3bc:	80 93 76 00 	sts	0x0076, r24
					break;
				}
				LINE_L_PLUS;
 3c0:	80 91 74 00 	lds	r24, 0x0074
 3c4:	90 91 75 00 	lds	r25, 0x0075
 3c8:	01 96       	adiw	r24, 0x01	; 1
 3ca:	90 93 75 00 	sts	0x0075, r25
 3ce:	80 93 74 00 	sts	0x0074, r24
 3d2:	40 97       	sbiw	r24, 0x10	; 16
 3d4:	1c f0       	brlt	.+6      	; 0x3dc <calculation+0x264>
 3d6:	81 e0       	ldi	r24, 0x01	; 1
 3d8:	90 e0       	ldi	r25, 0x00	; 0
 3da:	7a de       	rcall	.-780    	; 0xd0 <lcd_write_cmd>
				lcd_write_char(ch);
 3dc:	8d e3       	ldi	r24, 0x3D	; 61
 3de:	58 de       	rcall	.-848    	; 0x90 <lcd_write_char>
    } else if (__radix < 2 || __radix > 36) {
	*__s = 0;
	return __s;
    } else {
	extern char *__itoa_ncheck (int, char *, unsigned char);
	return __itoa_ncheck (__val, __s, __radix);
 3e0:	4a e0       	ldi	r20, 0x0A	; 10
 3e2:	6e e7       	ldi	r22, 0x7E	; 126
 3e4:	70 e0       	ldi	r23, 0x00	; 0
 3e6:	80 91 76 00 	lds	r24, 0x0076
 3ea:	90 91 77 00 	lds	r25, 0x0077
 3ee:	e5 d0       	rcall	.+458    	; 0x5ba <__itoa_ncheck>
				itoa(RESULT,RESULT_CH,10);
				lcd_write_str(RESULT_CH);
 3f0:	8e e7       	ldi	r24, 0x7E	; 126
 3f2:	90 e0       	ldi	r25, 0x00	; 0
 3f4:	62 de       	rcall	.-828    	; 0xba <lcd_write_str>
				MODE=2;
 3f6:	82 e0       	ldi	r24, 0x02	; 2
 3f8:	80 93 78 00 	sts	0x0078, r24
 3fc:	49 c0       	rjmp	.+146    	; 0x490 <calculation+0x318>
			}
			else
			{
				LINE_L_PLUS;
 3fe:	20 91 74 00 	lds	r18, 0x0074
 402:	30 91 75 00 	lds	r19, 0x0075
 406:	2f 5f       	subi	r18, 0xFF	; 255
 408:	3f 4f       	sbci	r19, 0xFF	; 255
 40a:	30 93 75 00 	sts	0x0075, r19
 40e:	20 93 74 00 	sts	0x0074, r18
 412:	20 31       	cpi	r18, 0x10	; 16
 414:	31 05       	cpc	r19, r1
 416:	1c f0       	brlt	.+6      	; 0x41e <calculation+0x2a6>
 418:	81 e0       	ldi	r24, 0x01	; 1
 41a:	90 e0       	ldi	r25, 0x00	; 0
 41c:	59 de       	rcall	.-846    	; 0xd0 <lcd_write_cmd>
				B_VAL = soft_multp(B_VAL,10)+(ch-'0');//B_VAL*10+(ch-'0');
 41e:	40 91 79 00 	lds	r20, 0x0079
 422:	50 91 7a 00 	lds	r21, 0x007A
 426:	2a e0       	ldi	r18, 0x0A	; 10
 428:	30 e0       	ldi	r19, 0x00	; 0
 42a:	21 50       	subi	r18, 0x01	; 1
 42c:	31 09       	sbc	r19, r1
/*==========Расчеты===========*/
int soft_multp(int a,int b)
{
	int TEMP_VAL = a;
	a = 0;
	for (int i = 0; i < b; i++)
 42e:	21 15       	cp	r18, r1
 430:	31 05       	cpc	r19, r1
 432:	d9 f7       	brne	.-10     	; 0x42a <calculation+0x2b2>
				MODE=2;
			}
			else
			{
				LINE_L_PLUS;
				B_VAL = soft_multp(B_VAL,10)+(ch-'0');//B_VAL*10+(ch-'0');
 434:	8c 2f       	mov	r24, r28
 436:	90 e0       	ldi	r25, 0x00	; 0
 438:	c0 97       	sbiw	r24, 0x30	; 48
 43a:	9a 01       	movw	r18, r20
 43c:	22 0f       	add	r18, r18
 43e:	33 1f       	adc	r19, r19
 440:	22 0f       	add	r18, r18
 442:	33 1f       	adc	r19, r19
 444:	42 0f       	add	r20, r18
 446:	53 1f       	adc	r21, r19
 448:	9a 01       	movw	r18, r20
 44a:	22 0f       	add	r18, r18
 44c:	33 1f       	adc	r19, r19
 44e:	ac 01       	movw	r20, r24
 450:	42 0f       	add	r20, r18
 452:	53 1f       	adc	r21, r19
 454:	50 93 7a 00 	sts	0x007A, r21
 458:	40 93 79 00 	sts	0x0079, r20
				lcd_write_char(ch);
 45c:	8c 2f       	mov	r24, r28
 45e:	18 de       	rcall	.-976    	; 0x90 <lcd_write_char>
 460:	17 c0       	rjmp	.+46     	; 0x490 <calculation+0x318>
			}
		break;
		case 2:
			if(ch=='?')
 462:	cf 33       	cpi	r28, 0x3F	; 63
 464:	a9 f4       	brne	.+42     	; 0x490 <calculation+0x318>
			{
				A_VAL=0;
 466:	10 92 7d 00 	sts	0x007D, r1
 46a:	10 92 7c 00 	sts	0x007C, r1
				B_VAL=0;
 46e:	10 92 7a 00 	sts	0x007A, r1
 472:	10 92 79 00 	sts	0x0079, r1
				RESULT = 0;
 476:	10 92 77 00 	sts	0x0077, r1
 47a:	10 92 76 00 	sts	0x0076, r1
				MODE=0;
 47e:	10 92 78 00 	sts	0x0078, r1
				LINE_L=0;
 482:	10 92 75 00 	sts	0x0075, r1
 486:	10 92 74 00 	sts	0x0074, r1
				LCD_CLEAR;
 48a:	81 e0       	ldi	r24, 0x01	; 1
 48c:	90 e0       	ldi	r25, 0x00	; 0
 48e:	20 de       	rcall	.-960    	; 0xd0 <lcd_write_cmd>
			}
		break;		
	}
}
 490:	cf 91       	pop	r28
 492:	08 95       	ret

00000494 <keypad_read>:
{
	KEYPAD_DDR = KEYPAD_INIT_;
	KEYPAD_PORT = 0xFF;
}
void keypad_read()
{
 494:	4f 92       	push	r4
 496:	5f 92       	push	r5
 498:	6f 92       	push	r6
 49a:	7f 92       	push	r7
 49c:	8f 92       	push	r8
 49e:	9f 92       	push	r9
 4a0:	af 92       	push	r10
 4a2:	bf 92       	push	r11
 4a4:	cf 92       	push	r12
 4a6:	df 92       	push	r13
 4a8:	ef 92       	push	r14
 4aa:	ff 92       	push	r15
 4ac:	0f 93       	push	r16
 4ae:	1f 93       	push	r17
 4b0:	cf 93       	push	r28
 4b2:	df 93       	push	r29
 4b4:	0f 2e       	mov	r0, r31
 4b6:	f0 e7       	ldi	r31, 0x70	; 112
 4b8:	ef 2e       	mov	r14, r31
 4ba:	f0 e0       	ldi	r31, 0x00	; 0
 4bc:	ff 2e       	mov	r15, r31
 4be:	f0 2d       	mov	r31, r0
 4c0:	0f 2e       	mov	r0, r31
 4c2:	f0 e6       	ldi	r31, 0x60	; 96
 4c4:	cf 2e       	mov	r12, r31
 4c6:	f0 e0       	ldi	r31, 0x00	; 0
 4c8:	df 2e       	mov	r13, r31
 4ca:	f0 2d       	mov	r31, r0
 4cc:	0f 2e       	mov	r0, r31
 4ce:	f4 e7       	ldi	r31, 0x74	; 116
 4d0:	6f 2e       	mov	r6, r31
 4d2:	f0 e0       	ldi	r31, 0x00	; 0
 4d4:	7f 2e       	mov	r7, r31
 4d6:	f0 2d       	mov	r31, r0
	for(int l=0;l<4;l++)
	{
		KEYPAD_PORT &= ~(1<<OPorts[l]);
 4d8:	88 24       	eor	r8, r8
 4da:	83 94       	inc	r8
 4dc:	91 2c       	mov	r9, r1
		for(int r=0;r<4;r++)
 4de:	41 2c       	mov	r4, r1
 4e0:	51 2c       	mov	r5, r1
}
void keypad_read()
{
	for(int l=0;l<4;l++)
	{
		KEYPAD_PORT &= ~(1<<OPorts[l]);
 4e2:	28 b3       	in	r18, 0x18	; 24
 4e4:	57 01       	movw	r10, r14
 4e6:	c4 01       	movw	r24, r8
 4e8:	f7 01       	movw	r30, r14
 4ea:	00 80       	ld	r0, Z
 4ec:	02 c0       	rjmp	.+4      	; 0x4f2 <keypad_read+0x5e>
 4ee:	88 0f       	add	r24, r24
 4f0:	99 1f       	adc	r25, r25
 4f2:	0a 94       	dec	r0
 4f4:	e2 f7       	brpl	.-8      	; 0x4ee <keypad_read+0x5a>
 4f6:	80 95       	com	r24
 4f8:	82 23       	and	r24, r18
 4fa:	88 bb       	out	0x18, r24	; 24
 4fc:	86 01       	movw	r16, r12
		for(int r=0;r<4;r++)
 4fe:	c4 2d       	mov	r28, r4
 500:	d5 2d       	mov	r29, r5
		{
			if(bit_is_clear(KEYPAD_PINS, r)==1)
 502:	86 b3       	in	r24, 0x16	; 22
 504:	90 e0       	ldi	r25, 0x00	; 0
 506:	0c 2e       	mov	r0, r28
 508:	02 c0       	rjmp	.+4      	; 0x50e <keypad_read+0x7a>
 50a:	95 95       	asr	r25
 50c:	87 95       	ror	r24
 50e:	0a 94       	dec	r0
 510:	e2 f7       	brpl	.-8      	; 0x50a <keypad_read+0x76>
 512:	80 fd       	sbrc	r24, 0
 514:	10 c0       	rjmp	.+32     	; 0x536 <keypad_read+0xa2>
 516:	94 01       	movw	r18, r8
 518:	0c 2e       	mov	r0, r28
 51a:	02 c0       	rjmp	.+4      	; 0x520 <keypad_read+0x8c>
 51c:	22 0f       	add	r18, r18
 51e:	33 1f       	adc	r19, r19
 520:	0a 94       	dec	r0
 522:	e2 f7       	brpl	.-8      	; 0x51c <keypad_read+0x88>
			{
				while(bit_is_clear(KEYPAD_PINS, r)==1);
 524:	86 b3       	in	r24, 0x16	; 22
 526:	90 e0       	ldi	r25, 0x00	; 0
 528:	82 23       	and	r24, r18
 52a:	93 23       	and	r25, r19
 52c:	89 2b       	or	r24, r25
 52e:	d1 f3       	breq	.-12     	; 0x524 <keypad_read+0x90>
				//lcd_write_char(KEYPAD_VAL[r][l]);
				calculation(KEYPAD_VAL[r][l]);
 530:	f8 01       	movw	r30, r16
 532:	80 81       	ld	r24, Z
 534:	21 de       	rcall	.-958    	; 0x178 <calculation>
void keypad_read()
{
	for(int l=0;l<4;l++)
	{
		KEYPAD_PORT &= ~(1<<OPorts[l]);
		for(int r=0;r<4;r++)
 536:	21 96       	adiw	r28, 0x01	; 1
 538:	0c 5f       	subi	r16, 0xFC	; 252
 53a:	1f 4f       	sbci	r17, 0xFF	; 255
 53c:	c4 30       	cpi	r28, 0x04	; 4
 53e:	d1 05       	cpc	r29, r1
 540:	01 f7       	brne	.-64     	; 0x502 <keypad_read+0x6e>
				while(bit_is_clear(KEYPAD_PINS, r)==1);
				//lcd_write_char(KEYPAD_VAL[r][l]);
				calculation(KEYPAD_VAL[r][l]);
			}
		}
		KEYPAD_PORT |= (1<<OPorts[l]);
 542:	28 b3       	in	r18, 0x18	; 24
 544:	ff ef       	ldi	r31, 0xFF	; 255
 546:	ef 1a       	sub	r14, r31
 548:	ff 0a       	sbc	r15, r31
 54a:	c4 01       	movw	r24, r8
 54c:	f5 01       	movw	r30, r10
 54e:	00 80       	ld	r0, Z
 550:	02 c0       	rjmp	.+4      	; 0x556 <keypad_read+0xc2>
 552:	88 0f       	add	r24, r24
 554:	99 1f       	adc	r25, r25
 556:	0a 94       	dec	r0
 558:	e2 f7       	brpl	.-8      	; 0x552 <keypad_read+0xbe>
 55a:	82 2b       	or	r24, r18
 55c:	88 bb       	out	0x18, r24	; 24
 55e:	ff ef       	ldi	r31, 0xFF	; 255
 560:	cf 1a       	sub	r12, r31
 562:	df 0a       	sbc	r13, r31
	KEYPAD_DDR = KEYPAD_INIT_;
	KEYPAD_PORT = 0xFF;
}
void keypad_read()
{
	for(int l=0;l<4;l++)
 564:	e6 14       	cp	r14, r6
 566:	f7 04       	cpc	r15, r7
 568:	09 f0       	breq	.+2      	; 0x56c <keypad_read+0xd8>
 56a:	bb cf       	rjmp	.-138    	; 0x4e2 <keypad_read+0x4e>
				calculation(KEYPAD_VAL[r][l]);
			}
		}
		KEYPAD_PORT |= (1<<OPorts[l]);
	}
}
 56c:	df 91       	pop	r29
 56e:	cf 91       	pop	r28
 570:	1f 91       	pop	r17
 572:	0f 91       	pop	r16
 574:	ff 90       	pop	r15
 576:	ef 90       	pop	r14
 578:	df 90       	pop	r13
 57a:	cf 90       	pop	r12
 57c:	bf 90       	pop	r11
 57e:	af 90       	pop	r10
 580:	9f 90       	pop	r9
 582:	8f 90       	pop	r8
 584:	7f 90       	pop	r7
 586:	6f 90       	pop	r6
 588:	5f 90       	pop	r5
 58a:	4f 90       	pop	r4
 58c:	08 95       	ret

0000058e <main>:
/**/void keypad_read();
/*=========МАТРИЧНАЯ КЛАВИАТУРА========*/

int main(void)
{
	sreg_init();//Настраиваем сдвиговый регистр
 58e:	65 dd       	rcall	.-1334   	; 0x5a <sreg_init>
	keypad_init();//Настраиваем матричную клавиатуру
 590:	ee dd       	rcall	.-1060   	; 0x16e <keypad_init>
	lcd_init();//Инициализируем LCD
 592:	af dd       	rcall	.-1186   	; 0xf2 <lcd_init>
	//lcd_write_str("Attiny2313");
	//lcd_set_cursor(1,0);
	//lcd_write_str("Calculator");
    while(1)
    {
		keypad_read();//Считываем нажатия
 594:	7f df       	rcall	.-258    	; 0x494 <keypad_read>
 596:	fe cf       	rjmp	.-4      	; 0x594 <main+0x6>

00000598 <__mulhi3>:
 598:	00 24       	eor	r0, r0
 59a:	55 27       	eor	r21, r21
 59c:	04 c0       	rjmp	.+8      	; 0x5a6 <__mulhi3+0xe>
 59e:	08 0e       	add	r0, r24
 5a0:	59 1f       	adc	r21, r25
 5a2:	88 0f       	add	r24, r24
 5a4:	99 1f       	adc	r25, r25
 5a6:	00 97       	sbiw	r24, 0x00	; 0
 5a8:	29 f0       	breq	.+10     	; 0x5b4 <__mulhi3+0x1c>
 5aa:	76 95       	lsr	r23
 5ac:	67 95       	ror	r22
 5ae:	b8 f3       	brcs	.-18     	; 0x59e <__mulhi3+0x6>
 5b0:	71 05       	cpc	r23, r1
 5b2:	b9 f7       	brne	.-18     	; 0x5a2 <__mulhi3+0xa>
 5b4:	80 2d       	mov	r24, r0
 5b6:	95 2f       	mov	r25, r21
 5b8:	08 95       	ret

000005ba <__itoa_ncheck>:
 5ba:	bb 27       	eor	r27, r27
 5bc:	4a 30       	cpi	r20, 0x0A	; 10
 5be:	31 f4       	brne	.+12     	; 0x5cc <__itoa_ncheck+0x12>
 5c0:	99 23       	and	r25, r25
 5c2:	22 f4       	brpl	.+8      	; 0x5cc <__itoa_ncheck+0x12>
 5c4:	bd e2       	ldi	r27, 0x2D	; 45
 5c6:	90 95       	com	r25
 5c8:	81 95       	neg	r24
 5ca:	9f 4f       	sbci	r25, 0xFF	; 255
 5cc:	01 c0       	rjmp	.+2      	; 0x5d0 <__utoa_common>

000005ce <__utoa_ncheck>:
 5ce:	bb 27       	eor	r27, r27

000005d0 <__utoa_common>:
 5d0:	fb 01       	movw	r30, r22
 5d2:	55 27       	eor	r21, r21
 5d4:	aa 27       	eor	r26, r26
 5d6:	88 0f       	add	r24, r24
 5d8:	99 1f       	adc	r25, r25
 5da:	aa 1f       	adc	r26, r26
 5dc:	a4 17       	cp	r26, r20
 5de:	10 f0       	brcs	.+4      	; 0x5e4 <__utoa_common+0x14>
 5e0:	a4 1b       	sub	r26, r20
 5e2:	83 95       	inc	r24
 5e4:	50 51       	subi	r21, 0x10	; 16
 5e6:	b9 f7       	brne	.-18     	; 0x5d6 <__utoa_common+0x6>
 5e8:	a0 5d       	subi	r26, 0xD0	; 208
 5ea:	aa 33       	cpi	r26, 0x3A	; 58
 5ec:	08 f0       	brcs	.+2      	; 0x5f0 <__utoa_common+0x20>
 5ee:	a9 5d       	subi	r26, 0xD9	; 217
 5f0:	a1 93       	st	Z+, r26
 5f2:	00 97       	sbiw	r24, 0x00	; 0
 5f4:	79 f7       	brne	.-34     	; 0x5d4 <__utoa_common+0x4>
 5f6:	b1 11       	cpse	r27, r1
 5f8:	b1 93       	st	Z+, r27
 5fa:	11 92       	st	Z+, r1
 5fc:	cb 01       	movw	r24, r22
 5fe:	00 c0       	rjmp	.+0      	; 0x600 <strrev>

00000600 <strrev>:
 600:	dc 01       	movw	r26, r24
 602:	fc 01       	movw	r30, r24
 604:	67 2f       	mov	r22, r23
 606:	71 91       	ld	r23, Z+
 608:	77 23       	and	r23, r23
 60a:	e1 f7       	brne	.-8      	; 0x604 <strrev+0x4>
 60c:	32 97       	sbiw	r30, 0x02	; 2
 60e:	04 c0       	rjmp	.+8      	; 0x618 <strrev+0x18>
 610:	7c 91       	ld	r23, X
 612:	6d 93       	st	X+, r22
 614:	70 83       	st	Z, r23
 616:	62 91       	ld	r22, -Z
 618:	ae 17       	cp	r26, r30
 61a:	bf 07       	cpc	r27, r31
 61c:	c8 f3       	brcs	.-14     	; 0x610 <strrev+0x10>
 61e:	08 95       	ret

00000620 <_exit>:
 620:	f8 94       	cli

00000622 <__stop_program>:
 622:	ff cf       	rjmp	.-2      	; 0x622 <__stop_program>
